; Function Attrs: mustprogress nofree norecurse nosync nounwind willreturn memory(write, argmem: readwrite, inaccessiblemem: none) uwtable
define noundef i32 @SUNLinSolSetPreconditioner_SPFGMR(ptr noundef readonly captures(none) %0, ptr noundef %1, ptr noundef %2, ptr noundef %3) #4 {
  %5 = load ptr, ptr %0, align 8, !tbaa !26
  %6 = getelementptr inbounds nuw i8, ptr %5, i64 56
  store ptr %2, ptr %6, align 8, !tbaa !42
  %7 = getelementptr inbounds nuw i8, ptr %5, i64 64
  store ptr %3, ptr %7, align 8, !tbaa !43
  %8 = getelementptr inbounds nuw i8, ptr %5, i64 72
  store ptr %1, ptr %8, align 8, !tbaa !44
  ret i32 0
}